; Function Attrs: mustprogress nofree norecurse nosync nounwind memory(readwrite, inaccessiblemem: none) uwtable
define hidden noundef i32 @_ZN3sat4prob8pick_varEv(ptr nocapture noundef nonnull align 8 dereferenceable(816) %this) local_unnamed_addr #9 align 2 {
entry:
  %m_unsat = getelementptr inbounds i8, ptr %this, i64 720
  %m_rand = getelementptr inbounds i8, ptr %this, i64 744
  %0 = load i32, ptr %m_rand, align 8
  %mul.i = mul i32 %0, 214013
  %add.i = add i32 %mul.i, 2531011
  store i32 %add.i, ptr %m_rand, align 8
  %shr.i = lshr i32 %add.i, 16
  %and.i = and i32 %shr.i, 32767
  %1 = load i32, ptr %m_unsat, align 8
  %rem = urem i32 %and.i, %1
  %m_elems.i = getelementptr inbounds i8, ptr %this, i64 728
  %2 = load ptr, ptr %m_elems.i, align 8
  %idxprom.i.i = zext nneg i32 %rem to i64
  %arrayidx.i.i = getelementptr inbounds i32, ptr %2, i64 %idxprom.i.i
  %3 = load i32, ptr %arrayidx.i.i, align 4
  %m_clause_db.i = getelementptr inbounds i8, ptr %this, i64 640
  %4 = load ptr, ptr %m_clause_db.i, align 8
  %idxprom.i.i11 = zext i32 %3 to i64
  %arrayidx.i.i12 = getelementptr inbounds ptr, ptr %4, i64 %idxprom.i.i11
  %5 = load ptr, ptr %arrayidx.i.i12, align 8
  %m_lits.i.ptr = getelementptr inbounds i8, ptr %5, i64 20
  %m_size.i = getelementptr inbounds i8, ptr %5, i64 4
  %6 = load i32, ptr %m_size.i, align 4
  %idx.ext.i = zext i32 %6 to i64
  %add.ptr.i.idx = shl nuw nsw i64 %idx.ext.i, 2
  %7 = getelementptr i8, ptr %5, i64 %add.ptr.i.idx
  %add.ptr.i.ptr = getelementptr i8, ptr %7, i64 20
  %cmp.not29 = icmp eq i32 %6, 0
  br i1 %cmp.not29, label %for.end, label %for.body.lr.ph

for.body.lr.ph:                                   ; preds = %entry
  %m_prob_break = getelementptr inbounds i8, ptr %this, i64 704
  %m_breaks = getelementptr inbounds i8, ptr %this, i64 752
  %m_probs = getelementptr inbounds i8, ptr %this, i64 712
  br label %for.body

for.body:                                         ; preds = %for.body.lr.ph, %for.body
  %indvars.iv = phi i64 [ 0, %for.body.lr.ph ], [ %indvars.iv.next, %for.body ]
  %sum_prob.032 = phi double [ 0.000000e+00, %for.body.lr.ph ], [ %add, %for.body ]
  %__begin1.030 = phi ptr [ %m_lits.i.ptr, %for.body.lr.ph ], [ %incdec.ptr, %for.body ]
  %8 = load i32, ptr %__begin1.030, align 4
  %shr.i14 = lshr i32 %8, 1
  %9 = load ptr, ptr %m_breaks, align 8
  %idxprom.i = zext nneg i32 %shr.i14 to i64
  %arrayidx.i = getelementptr inbounds i32, ptr %9, i64 %idxprom.i
  %10 = load i32, ptr %arrayidx.i, align 4
  %11 = load ptr, ptr %m_prob_break, align 8
  %idxprom.i15 = zext i32 %10 to i64
  %arrayidx.i16 = getelementptr inbounds double, ptr %11, i64 %idxprom.i15
  %12 = load double, ptr %arrayidx.i16, align 8
  %indvars.iv.next = add nuw nsw i64 %indvars.iv, 1
  %13 = load ptr, ptr %m_probs, align 8
  %arrayidx.i18 = getelementptr inbounds double, ptr %13, i64 %indvars.iv
  store double %12, ptr %arrayidx.i18, align 8
  %add = fadd double %sum_prob.032, %12
  %incdec.ptr = getelementptr inbounds i8, ptr %__begin1.030, i64 4
  %cmp.not = icmp eq ptr %incdec.ptr, %add.ptr.i.ptr
  br i1 %cmp.not, label %for.end.loopexit, label %for.body

for.end.loopexit:                                 ; preds = %for.body
  %14 = trunc i64 %indvars.iv.next to i32
  %.pre = load i32, ptr %m_rand, align 8
  br label %for.end

for.end:                                          ; preds = %for.end.loopexit, %entry
  %15 = phi i32 [ %add.i, %entry ], [ %.pre, %for.end.loopexit ]
  %i.0.lcssa = phi i32 [ 0, %entry ], [ %14, %for.end.loopexit ]
  %sum_prob.0.lcssa = phi double [ 0.000000e+00, %entry ], [ %add, %for.end.loopexit ]
  %mul.i19 = mul i32 %15, 214013
  %add.i20 = add i32 %mul.i19, 2531011
  store i32 %add.i20, ptr %m_rand, align 8
  %shr.i21 = lshr i32 %add.i20, 16
  %and.i22 = and i32 %shr.i21, 32767
  %conv = sitofp i32 %and.i22 to double
  %div = fdiv double %conv, 3.276700e+04
  %mul = fmul double %sum_prob.0.lcssa, %div
  %m_probs17 = getelementptr inbounds i8, ptr %this, i64 712
  %16 = load ptr, ptr %m_probs17, align 8
  br label %do.body

do.body:                                          ; preds = %do.body, %for.end
  %i.1 = phi i32 [ %i.0.lcssa, %for.end ], [ %dec, %do.body ]
  %lim.0 = phi double [ %mul, %for.end ], [ %sub, %do.body ]
  %dec = add i32 %i.1, -1
  %idxprom.i23 = zext i32 %dec to i64
  %arrayidx.i24 = getelementptr inbounds double, ptr %16, i64 %idxprom.i23
  %17 = load double, ptr %arrayidx.i24, align 8
  %sub = fsub double %lim.0, %17
  %cmp19 = fcmp oge double %sub, 0.000000e+00
  %cmp20 = icmp ne i32 %dec, 0
  %18 = and i1 %cmp20, %cmp19
  br i1 %18, label %do.body, label %do.end, !llvm.loop !9

do.end:                                           ; preds = %do.body
  %arrayidx.i27 = getelementptr inbounds [0 x %"class.sat::literal"], ptr %m_lits.i.ptr, i64 0, i64 %idxprom.i23
  %19 = load i32, ptr %arrayidx.i27, align 4
  %shr.i28 = lshr i32 %19, 1
  ret i32 %shr.i28
}